
Disassembly of section .text:

00000000 <__start>:
   0:	008000ef          	jal	8 <pre_main>

00000004 <__post_main>:
   4:	0000006f          	j	4 <__post_main>

00000008 <pre_main>:
   8:	00001117          	auipc	sp,0x1
   c:	ff410113          	addi	sp,sp,-12 # ffc <_USER_SP_ADDR>
  10:	0040006f          	j	14 <_text_end>

Disassembly of section .text.startup.main:

00000014 <main>:
  14:	000015b7          	lui	a1,0x1
  18:	06400793          	li	a5,100
  1c:	80f5a023          	sw	a5,-2048(a1) # 800 <_bss_end>
  20:	0c800793          	li	a5,200
  24:	80f5a223          	sw	a5,-2044(a1)
  28:	12c00793          	li	a5,300
  2c:	80f5a423          	sw	a5,-2040(a1)
  30:	19000793          	li	a5,400
  34:	80f5a623          	sw	a5,-2036(a1)
  38:	8045a603          	lw	a2,-2044(a1)
  3c:	8005a783          	lw	a5,-2048(a1)
  40:	8085a683          	lw	a3,-2040(a1)
  44:	80c5a703          	lw	a4,-2036(a1)
  48:	00c787b3          	add	a5,a5,a2
  4c:	00d787b3          	add	a5,a5,a3
  50:	00e787b3          	add	a5,a5,a4
  54:	80f5a823          	sw	a5,-2032(a1)
  58:	8005a683          	lw	a3,-2048(a1)
  5c:	1f400713          	li	a4,500
  60:	81458793          	addi	a5,a1,-2028
  64:	02d75863          	bge	a4,a3,94 <main+0x80>
  68:	00100713          	li	a4,1
  6c:	00e7a023          	sw	a4,0(a5)
  70:	00001737          	lui	a4,0x1
  74:	00000793          	li	a5,0
  78:	81870713          	addi	a4,a4,-2024 # 818 <_bss_end+0x18>
  7c:	00a00693          	li	a3,10
  80:	00f72023          	sw	a5,0(a4)
  84:	00178793          	addi	a5,a5,1
  88:	fed79ce3          	bne	a5,a3,80 <main+0x6c>
  8c:	00000513          	li	a0,0
  90:	00008067          	ret
  94:	00200713          	li	a4,2
  98:	fd5ff06f          	j	6c <main+0x58>
